target datalayout = "e-m:e-p270:32:32-p271:32:32-p272:64:64-i64:64-i128:128-f80:128-n8:16:32:64-S128"
target triple = "x86_64-unknown-linux-gnu"

%"struct.msdfgen::Vector2" = type { double, double }
%"class.msdfgen::LinearSegment" = type { %"class.msdfgen::EdgeSegment.base", [2 x %"struct.msdfgen::Vector2"] }
%"class.msdfgen::EdgeSegment.base" = type <{ ptr, i32 }>

; Function Attrs: mustprogress nounwind uwtable
define linkonce_odr dso_local noundef i32 @_ZN7msdfgen4signIdEEiT_(double noundef %n) #4 comdat {
entry:
  %n.addr = alloca double, align 8
  store double %n, ptr %n.addr, align 8
  %0 = load double, ptr %n.addr, align 8
  %cmp = fcmp olt double 0.000000e+00, %0
  %conv = zext i1 %cmp to i32
  %1 = load double, ptr %n.addr, align 8
  %cmp1 = fcmp olt double %1, 0.000000e+00
  %conv2 = zext i1 %cmp1 to i32
  %sub = sub nsw i32 %conv, %conv2
  ret i32 %sub
}

; Function Attrs: mustprogress nounwind uwtable
define linkonce_odr dso_local noundef double @_ZN7msdfgen3mixIddEET_S1_S1_T0_(double noundef %a, double noundef %b, double noundef %weight) #4 comdat {
entry:
  %a.addr = alloca double, align 8
  %b.addr = alloca double, align 8
  %weight.addr = alloca double, align 8
  store double %a, ptr %a.addr, align 8
  store double %b, ptr %b.addr, align 8
  store double %weight, ptr %weight.addr, align 8
  %0 = load double, ptr %weight.addr, align 8
  %sub = fsub double 1.000000e+00, %0
  %1 = load double, ptr %a.addr, align 8
  %2 = load double, ptr %weight.addr, align 8
  %3 = load double, ptr %b.addr, align 8
  %mul1 = fmul double %2, %3
  %4 = call double @llvm.fmuladd.f64(double %sub, double %1, double %mul1)
  ret double %4
}

; Function Attrs: mustprogress uwtable
define dso_local noundef i32 @_ZNK7msdfgen13LinearSegment21scanlineIntersectionsEPdPid(ptr noundef nonnull align 8 dereferenceable(48) %this, ptr noundef %x, ptr noundef %dy, double noundef %y) unnamed_addr #0 align 2 {
entry:
  %retval = alloca i32, align 4
  %this.addr = alloca ptr, align 8
  %x.addr = alloca ptr, align 8
  %dy.addr = alloca ptr, align 8
  %y.addr = alloca double, align 8
  %param = alloca double, align 8
  store ptr %this, ptr %this.addr, align 8
  store ptr %x, ptr %x.addr, align 8
  store ptr %dy, ptr %dy.addr, align 8
  store double %y, ptr %y.addr, align 8
  %this1 = load ptr, ptr %this.addr, align 8
  %0 = load double, ptr %y.addr, align 8
  %p = getelementptr inbounds %"class.msdfgen::LinearSegment", ptr %this1, i32 0, i32 1
  %arrayidx = getelementptr inbounds [2 x %"struct.msdfgen::Vector2"], ptr %p, i64 0, i64 0
  %y2 = getelementptr inbounds %"struct.msdfgen::Vector2", ptr %arrayidx, i32 0, i32 1
  %1 = load double, ptr %y2, align 8
  %cmp = fcmp oge double %0, %1
  br i1 %cmp, label %land.lhs.true, label %lor.lhs.false

land.lhs.true:                                    ; preds = %entry
  %2 = load double, ptr %y.addr, align 8
  %p3 = getelementptr inbounds %"class.msdfgen::LinearSegment", ptr %this1, i32 0, i32 1
  %arrayidx4 = getelementptr inbounds [2 x %"struct.msdfgen::Vector2"], ptr %p3, i64 0, i64 1
  %y5 = getelementptr inbounds %"struct.msdfgen::Vector2", ptr %arrayidx4, i32 0, i32 1
  %3 = load double, ptr %y5, align 8
  %cmp6 = fcmp olt double %2, %3
  br i1 %cmp6, label %if.then, label %lor.lhs.false

lor.lhs.false:                                    ; preds = %land.lhs.true, %entry
  %4 = load double, ptr %y.addr, align 8
  %p7 = getelementptr inbounds %"class.msdfgen::LinearSegment", ptr %this1, i32 0, i32 1
  %arrayidx8 = getelementptr inbounds [2 x %"struct.msdfgen::Vector2"], ptr %p7, i64 0, i64 1
  %y9 = getelementptr inbounds %"struct.msdfgen::Vector2", ptr %arrayidx8, i32 0, i32 1
  %5 = load double, ptr %y9, align 8
  %cmp10 = fcmp oge double %4, %5
  br i1 %cmp10, label %land.lhs.true11, label %if.end

land.lhs.true11:                                  ; preds = %lor.lhs.false
  %6 = load double, ptr %y.addr, align 8
  %p12 = getelementptr inbounds %"class.msdfgen::LinearSegment", ptr %this1, i32 0, i32 1
  %arrayidx13 = getelementptr inbounds [2 x %"struct.msdfgen::Vector2"], ptr %p12, i64 0, i64 0
  %y14 = getelementptr inbounds %"struct.msdfgen::Vector2", ptr %arrayidx13, i32 0, i32 1
  %7 = load double, ptr %y14, align 8
  %cmp15 = fcmp olt double %6, %7
  br i1 %cmp15, label %if.then, label %if.end

if.then:                                          ; preds = %land.lhs.true11, %land.lhs.true
  %8 = load double, ptr %y.addr, align 8
  %p16 = getelementptr inbounds %"class.msdfgen::LinearSegment", ptr %this1, i32 0, i32 1
  %arrayidx17 = getelementptr inbounds [2 x %"struct.msdfgen::Vector2"], ptr %p16, i64 0, i64 0
  %y18 = getelementptr inbounds %"struct.msdfgen::Vector2", ptr %arrayidx17, i32 0, i32 1
  %9 = load double, ptr %y18, align 8
  %sub = fsub double %8, %9
  %p19 = getelementptr inbounds %"class.msdfgen::LinearSegment", ptr %this1, i32 0, i32 1
  %arrayidx20 = getelementptr inbounds [2 x %"struct.msdfgen::Vector2"], ptr %p19, i64 0, i64 1
  %y21 = getelementptr inbounds %"struct.msdfgen::Vector2", ptr %arrayidx20, i32 0, i32 1
  %10 = load double, ptr %y21, align 8
  %p22 = getelementptr inbounds %"class.msdfgen::LinearSegment", ptr %this1, i32 0, i32 1
  %arrayidx23 = getelementptr inbounds [2 x %"struct.msdfgen::Vector2"], ptr %p22, i64 0, i64 0
  %y24 = getelementptr inbounds %"struct.msdfgen::Vector2", ptr %arrayidx23, i32 0, i32 1
  %11 = load double, ptr %y24, align 8
  %sub25 = fsub double %10, %11
  %div = fdiv double %sub, %sub25
  store double %div, ptr %param, align 8
  %p26 = getelementptr inbounds %"class.msdfgen::LinearSegment", ptr %this1, i32 0, i32 1
  %arrayidx27 = getelementptr inbounds [2 x %"struct.msdfgen::Vector2"], ptr %p26, i64 0, i64 0
  %x28 = getelementptr inbounds %"struct.msdfgen::Vector2", ptr %arrayidx27, i32 0, i32 0
  %12 = load double, ptr %x28, align 8
  %p29 = getelementptr inbounds %"class.msdfgen::LinearSegment", ptr %this1, i32 0, i32 1
  %arrayidx30 = getelementptr inbounds [2 x %"struct.msdfgen::Vector2"], ptr %p29, i64 0, i64 1
  %x31 = getelementptr inbounds %"struct.msdfgen::Vector2", ptr %arrayidx30, i32 0, i32 0
  %13 = load double, ptr %x31, align 8
  %14 = load double, ptr %param, align 8
  %call = call noundef double @_ZN7msdfgen3mixIddEET_S1_S1_T0_(double noundef %12, double noundef %13, double noundef %14)
  %15 = load ptr, ptr %x.addr, align 8
  %arrayidx32 = getelementptr inbounds double, ptr %15, i64 0
  store double %call, ptr %arrayidx32, align 8
  %p33 = getelementptr inbounds %"class.msdfgen::LinearSegment", ptr %this1, i32 0, i32 1
  %arrayidx34 = getelementptr inbounds [2 x %"struct.msdfgen::Vector2"], ptr %p33, i64 0, i64 1
  %y35 = getelementptr inbounds %"struct.msdfgen::Vector2", ptr %arrayidx34, i32 0, i32 1
  %16 = load double, ptr %y35, align 8
  %p36 = getelementptr inbounds %"class.msdfgen::LinearSegment", ptr %this1, i32 0, i32 1
  %arrayidx37 = getelementptr inbounds [2 x %"struct.msdfgen::Vector2"], ptr %p36, i64 0, i64 0
  %y38 = getelementptr inbounds %"struct.msdfgen::Vector2", ptr %arrayidx37, i32 0, i32 1
  %17 = load double, ptr %y38, align 8
  %sub39 = fsub double %16, %17
  %call40 = call noundef i32 @_ZN7msdfgen4signIdEEiT_(double noundef %sub39)
  %18 = load ptr, ptr %dy.addr, align 8
  %arrayidx41 = getelementptr inbounds i32, ptr %18, i64 0
  store i32 %call40, ptr %arrayidx41, align 4
  store i32 1, ptr %retval, align 4
  br label %return

if.end:                                           ; preds = %land.lhs.true11, %lor.lhs.false
  store i32 0, ptr %retval, align 4
  br label %return

return:                                           ; preds = %if.end, %if.then
  %19 = load i32, ptr %retval, align 4
  ret i32 %19
}