; Function Attrs: mustprogress nofree norecurse nosync nounwind willreturn memory(argmem: readwrite) uwtable
define dso_local noundef i32 @_ZNK7msdfgen13LinearSegment21scanlineIntersectionsEPdPid(ptr nocapture noundef nonnull readonly align 8 dereferenceable(48) %this, ptr nocapture noundef writeonly %x, ptr nocapture noundef writeonly %dy, double noundef %y) unnamed_addr #10 align 2 {
entry:
  %p = getelementptr inbounds i8, ptr %this, i64 16
  %y2 = getelementptr inbounds i8, ptr %this, i64 24
  %0 = load double, ptr %y2, align 8
  %cmp = fcmp ole double %0, %y
  %y5 = getelementptr inbounds i8, ptr %this, i64 40
  %1 = load double, ptr %y5, align 8
  %cmp6 = fcmp ogt double %1, %y
  %or.cond = select i1 %cmp, i1 %cmp6, i1 false
  br i1 %or.cond, label %if.then, label %lor.lhs.false

lor.lhs.false:                                    ; preds = %entry
  %cmp10 = fcmp ole double %1, %y
  %cmp15 = fcmp ogt double %0, %y
  %or.cond5 = and i1 %cmp15, %cmp10
  br i1 %or.cond5, label %if.then, label %return

if.then:                                          ; preds = %lor.lhs.false, %entry
  %sub = fsub double %y, %0
  %arrayidx20 = getelementptr inbounds i8, ptr %this, i64 32
  %sub25 = fsub double %1, %0
  %div = fdiv double %sub, %sub25
  %2 = load double, ptr %p, align 8
  %3 = load double, ptr %arrayidx20, align 8
  %sub.i = fsub double 1.000000e+00, %div
  %mul1.i = fmul double %div, %3
  %4 = tail call noundef double @llvm.fmuladd.f64(double %sub.i, double %2, double %mul1.i)
  store double %4, ptr %x, align 8
  %5 = load double, ptr %y5, align 8
  %6 = load double, ptr %y2, align 8
  %sub39 = fsub double %5, %6
  %cmp.i = fcmp ogt double %sub39, 0.000000e+00
  %conv.i = zext i1 %cmp.i to i32
  %cmp1.i = fcmp olt double %sub39, 0.000000e+00
  %conv2.neg.i = sext i1 %cmp1.i to i32
  %sub.i6 = add nsw i32 %conv2.neg.i, %conv.i
  store i32 %sub.i6, ptr %dy, align 4
  br label %return

return:                                           ; preds = %lor.lhs.false, %if.then
  %retval.0 = phi i32 [ 1, %if.then ], [ 0, %lor.lhs.false ]
  ret i32 %retval.0
}